target datalayout = "e-m:e-p270:32:32-p271:32:32-p272:64:64-i64:64-i128:128-f80:128-n8:16:32:64-S128"
target triple = "x86_64-pc-linux-gnu"

%struct.lzma_lz_decoder = type { ptr, ptr, ptr, ptr, ptr }
%struct.lzma_next_coder_s = type { ptr, i64, i64, ptr, ptr, ptr, ptr, ptr, ptr, ptr }
%struct.lzma_coder = type { %struct.lzma_dict, %struct.lzma_lz_decoder, %struct.lzma_next_coder_s, i8, i8, %struct.anon }
%struct.lzma_dict = type { ptr, i64, i64, i64, i64, i8, i8 }
%struct.anon = type { i64, i64, [4096 x i8] }

; Function Attrs: nounwind uwtable
define internal void @lz_decoder_end(ptr noundef %0, ptr noundef %1) #0 {
  %3 = alloca ptr, align 8
  %4 = alloca ptr, align 8
  %5 = alloca ptr, align 8
  store ptr %0, ptr %3, align 8, !tbaa !9
  store ptr %1, ptr %4, align 8, !tbaa !9
  call void @llvm.lifetime.start.p0(i64 8, ptr %5) #5
  %6 = load ptr, ptr %3, align 8, !tbaa !9
  store ptr %6, ptr %5, align 8, !tbaa !9
  %7 = load ptr, ptr %5, align 8, !tbaa !9
  %8 = getelementptr inbounds nuw %struct.lzma_coder, ptr %7, i32 0, i32 2
  %9 = load ptr, ptr %4, align 8, !tbaa !9
  call void @lzma_next_end(ptr noundef %8, ptr noundef %9)
  %10 = load ptr, ptr %5, align 8, !tbaa !9
  %11 = getelementptr inbounds nuw %struct.lzma_coder, ptr %10, i32 0, i32 0
  %12 = getelementptr inbounds nuw %struct.lzma_dict, ptr %11, i32 0, i32 0
  %13 = load ptr, ptr %12, align 8, !tbaa !17
  %14 = load ptr, ptr %4, align 8, !tbaa !9
  call void @lzma_free(ptr noundef %13, ptr noundef %14)
  %15 = load ptr, ptr %5, align 8, !tbaa !9
  %16 = getelementptr inbounds nuw %struct.lzma_coder, ptr %15, i32 0, i32 1
  %17 = getelementptr inbounds nuw %struct.lzma_lz_decoder, ptr %16, i32 0, i32 4
  %18 = load ptr, ptr %17, align 8, !tbaa !53
  %19 = icmp ne ptr %18, null
  br i1 %19, label %20, label %30

20:                                               ; preds = %2
  %21 = load ptr, ptr %5, align 8, !tbaa !9
  %22 = getelementptr inbounds nuw %struct.lzma_coder, ptr %21, i32 0, i32 1
  %23 = getelementptr inbounds nuw %struct.lzma_lz_decoder, ptr %22, i32 0, i32 4
  %24 = load ptr, ptr %23, align 8, !tbaa !53
  %25 = load ptr, ptr %5, align 8, !tbaa !9
  %26 = getelementptr inbounds nuw %struct.lzma_coder, ptr %25, i32 0, i32 1
  %27 = getelementptr inbounds nuw %struct.lzma_lz_decoder, ptr %26, i32 0, i32 0
  %28 = load ptr, ptr %27, align 8, !tbaa !54
  %29 = load ptr, ptr %4, align 8, !tbaa !9
  call void %24(ptr noundef %28, ptr noundef %29)
  br label %36

30:                                               ; preds = %2
  %31 = load ptr, ptr %5, align 8, !tbaa !9
  %32 = getelementptr inbounds nuw %struct.lzma_coder, ptr %31, i32 0, i32 1
  %33 = getelementptr inbounds nuw %struct.lzma_lz_decoder, ptr %32, i32 0, i32 0
  %34 = load ptr, ptr %33, align 8, !tbaa !54
  %35 = load ptr, ptr %4, align 8, !tbaa !9
  call void @lzma_free(ptr noundef %34, ptr noundef %35)
  br label %36

36:                                               ; preds = %30, %20
  %37 = load ptr, ptr %5, align 8, !tbaa !9
  %38 = load ptr, ptr %4, align 8, !tbaa !9
  call void @lzma_free(ptr noundef %37, ptr noundef %38)
  call void @llvm.lifetime.end.p0(i64 8, ptr %5) #5
  ret void
}