; Function Attrs: nounwind uwtable
define internal void @lz_decoder_end(ptr noundef %0, ptr noundef %1) #0 {
  %3 = getelementptr inbounds nuw i8, ptr %0, i64 88
  tail call void @lzma_next_end(ptr noundef nonnull %3, ptr noundef %1) #8
  %4 = load ptr, ptr %0, align 8, !tbaa !12
  tail call void @lzma_free(ptr noundef %4, ptr noundef %1) #8
  %5 = getelementptr inbounds nuw i8, ptr %0, i64 48
  %6 = getelementptr inbounds nuw i8, ptr %0, i64 80
  %7 = load ptr, ptr %6, align 8, !tbaa !64
  %.not = icmp eq ptr %7, null
  %8 = load ptr, ptr %5, align 8, !tbaa !47
  br i1 %.not, label %10, label %9

9:                                                ; preds = %2
  tail call void %7(ptr noundef %8, ptr noundef %1) #8
  br label %11

10:                                               ; preds = %2
  tail call void @lzma_free(ptr noundef %8, ptr noundef %1) #8
  br label %11

11:                                               ; preds = %10, %9
  tail call void @lzma_free(ptr noundef nonnull %0, ptr noundef %1) #8
  ret void
}